; Function Attrs: mustprogress uwtable
define noundef i32 @_ZN8MdiChild11qt_metacallEN11QMetaObject4CallEiPPv(ptr noundef nonnull align 8 dereferenceable(153) %0, i32 noundef %1, i32 noundef %2, ptr noundef %3) unnamed_addr #0 align 2 {
  %5 = tail call noundef i32 @_ZN9QTextEdit11qt_metacallEN11QMetaObject4CallEiPPv(ptr noundef nonnull align 8 dereferenceable(40) %0, i32 noundef %1, i32 noundef %2, ptr noundef %3)
  %6 = icmp slt i32 %5, 0
  br i1 %6, label %19, label %7

7:                                                ; preds = %4
  switch i32 %1, label %19 [
    i32 0, label %8
    i32 7, label %13
  ]

8:                                                ; preds = %7
  %9 = icmp eq i32 %5, 0
  br i1 %9, label %10, label %11

10:                                               ; preds = %8
  tail call void @_ZN8MdiChild19documentWasModifiedEv(ptr noundef nonnull align 8 dereferenceable(153) %0)
  br label %11

11:                                               ; preds = %10, %8
  %12 = add nsw i32 %5, -1
  br label %19

13:                                               ; preds = %7
  %14 = icmp eq i32 %5, 0
  br i1 %14, label %15, label %17

15:                                               ; preds = %13
  %16 = load ptr, ptr %3, align 8
  store i64 0, ptr %16, align 8
  br label %17

17:                                               ; preds = %15, %13
  %18 = add nsw i32 %5, -1
  br label %19

19:                                               ; preds = %11, %17, %7, %4
  %.0 = phi i32 [ %5, %4 ], [ %12, %11 ], [ %18, %17 ], [ %5, %7 ]
  ret i32 %.0
}